
test/test.o.2:     file format elf64-x86-64


Disassembly of section .text:

0000000000000000 <_Z12matrix_alloci>:
   0:	55                   	push   %rbp
   1:	41 57                	push   %r15
   3:	41 56                	push   %r14
   5:	53                   	push   %rbx
   6:	50                   	push   %rax
   7:	89 fd                	mov    %edi,%ebp
   9:	48 63 df             	movslq %edi,%rbx
   c:	4c 8d 34 dd 00 00 00 	lea    0x0(,%rbx,8),%r14
  13:	00 
  14:	4c 89 f7             	mov    %r14,%rdi
  17:	e8 00 00 00 00       	callq  1c <_Z12matrix_alloci+0x1c>
  1c:	49 89 c7             	mov    %rax,%r15
  1f:	85 db                	test   %ebx,%ebx
  21:	7e 22                	jle    45 <_Z12matrix_alloci+0x45>
  23:	89 ed                	mov    %ebp,%ebp
  25:	31 db                	xor    %ebx,%ebx
  27:	66 0f 1f 84 00 00 00 	nopw   0x0(%rax,%rax,1)
  2e:	00 00 
  30:	4c 89 f7             	mov    %r14,%rdi
  33:	e8 00 00 00 00       	callq  38 <_Z12matrix_alloci+0x38>
  38:	49 89 04 df          	mov    %rax,(%r15,%rbx,8)
  3c:	48 83 c3 01          	add    $0x1,%rbx
  40:	48 39 dd             	cmp    %rbx,%rbp
  43:	75 eb                	jne    30 <_Z12matrix_alloci+0x30>
  45:	4c 89 f8             	mov    %r15,%rax
  48:	48 83 c4 08          	add    $0x8,%rsp
  4c:	5b                   	pop    %rbx
  4d:	41 5e                	pop    %r14
  4f:	41 5f                	pop    %r15
  51:	5d                   	pop    %rbp
  52:	c3                   	retq   
  53:	66 2e 0f 1f 84 00 00 	nopw   %cs:0x0(%rax,%rax,1)
  5a:	00 00 00 
  5d:	0f 1f 00             	nopl   (%rax)

0000000000000060 <_Z11matrix_freePPdi>:
  60:	41 57                	push   %r15
  62:	41 56                	push   %r14
  64:	53                   	push   %rbx
  65:	49 89 fe             	mov    %rdi,%r14
  68:	85 f6                	test   %esi,%esi
  6a:	7e 26                	jle    92 <_Z11matrix_freePPdi+0x32>
  6c:	41 89 f7             	mov    %esi,%r15d
  6f:	31 db                	xor    %ebx,%ebx
  71:	66 2e 0f 1f 84 00 00 	nopw   %cs:0x0(%rax,%rax,1)
  78:	00 00 00 
  7b:	0f 1f 44 00 00       	nopl   0x0(%rax,%rax,1)
  80:	49 8b 3c de          	mov    (%r14,%rbx,8),%rdi
  84:	e8 00 00 00 00       	callq  89 <_Z11matrix_freePPdi+0x29>
  89:	48 83 c3 01          	add    $0x1,%rbx
  8d:	49 39 df             	cmp    %rbx,%r15
  90:	75 ee                	jne    80 <_Z11matrix_freePPdi+0x20>
  92:	4c 89 f7             	mov    %r14,%rdi
  95:	5b                   	pop    %rbx
  96:	41 5e                	pop    %r14
  98:	41 5f                	pop    %r15
  9a:	e9 00 00 00 00       	jmpq   9f <_Z11matrix_freePPdi+0x3f>
  9f:	90                   	nop

00000000000000a0 <_Z12matrix_printPPdi>:
  a0:	41 57                	push   %r15
  a2:	41 56                	push   %r14
  a4:	41 55                	push   %r13
  a6:	41 54                	push   %r12
  a8:	53                   	push   %rbx
  a9:	85 f6                	test   %esi,%esi
  ab:	7e 52                	jle    ff <_Z12matrix_printPPdi+0x5f>
  ad:	49 89 ff             	mov    %rdi,%r15
  b0:	41 89 f4             	mov    %esi,%r12d
  b3:	45 31 ed             	xor    %r13d,%r13d
  b6:	4c 8d 35 00 00 00 00 	lea    0x0(%rip),%r14        # bd <_Z12matrix_printPPdi+0x1d>
  bd:	0f 1f 00             	nopl   (%rax)
  c0:	31 db                	xor    %ebx,%ebx
  c2:	66 2e 0f 1f 84 00 00 	nopw   %cs:0x0(%rax,%rax,1)
  c9:	00 00 00 
  cc:	0f 1f 40 00          	nopl   0x0(%rax)
  d0:	4b 8b 04 ef          	mov    (%r15,%r13,8),%rax
  d4:	f2 0f 10 04 d8       	movsd  (%rax,%rbx,8),%xmm0
  d9:	b0 01                	mov    $0x1,%al
  db:	4c 89 f7             	mov    %r14,%rdi
  de:	e8 00 00 00 00       	callq  e3 <_Z12matrix_printPPdi+0x43>
  e3:	48 83 c3 01          	add    $0x1,%rbx
  e7:	49 39 dc             	cmp    %rbx,%r12
  ea:	75 e4                	jne    d0 <_Z12matrix_printPPdi+0x30>
  ec:	bf 0a 00 00 00       	mov    $0xa,%edi
  f1:	e8 00 00 00 00       	callq  f6 <_Z12matrix_printPPdi+0x56>
  f6:	49 83 c5 01          	add    $0x1,%r13
  fa:	49 39 dd             	cmp    %rbx,%r13
  fd:	75 c1                	jne    c0 <_Z12matrix_printPPdi+0x20>
  ff:	5b                   	pop    %rbx
 100:	41 5c                	pop    %r12
 102:	41 5d                	pop    %r13
 104:	41 5e                	pop    %r14
 106:	41 5f                	pop    %r15
 108:	c3                   	retq   
 109:	0f 1f 80 00 00 00 00 	nopl   0x0(%rax)

0000000000000110 <_Z9transposePPdi>:
 110:	53                   	push   %rbx
 111:	85 f6                	test   %esi,%esi
 113:	0f 8e f1 00 00 00    	jle    20a <_Z9transposePPdi+0xfa>
 119:	41 89 f0             	mov    %esi,%r8d
 11c:	31 c9                	xor    %ecx,%ecx
 11e:	66 90                	xchg   %ax,%ax
 120:	48 85 c9             	test   %rcx,%rcx
 123:	0f 84 d4 00 00 00    	je     1fd <_Z9transposePPdi+0xed>
 129:	41 89 c9             	mov    %ecx,%r9d
 12c:	41 83 e1 03          	and    $0x3,%r9d
 130:	48 8d 41 ff          	lea    -0x1(%rcx),%rax
 134:	48 8b 34 cf          	mov    (%rdi,%rcx,8),%rsi
 138:	48 83 f8 03          	cmp    $0x3,%rax
 13c:	73 12                	jae    150 <_Z9transposePPdi+0x40>
 13e:	31 c0                	xor    %eax,%eax
 140:	f6 c1 03             	test   $0x3,%cl
 143:	0f 85 7e 00 00 00    	jne    1c7 <_Z9transposePPdi+0xb7>
 149:	e9 af 00 00 00       	jmpq   1fd <_Z9transposePPdi+0xed>
 14e:	66 90                	xchg   %ax,%ax
 150:	49 89 ca             	mov    %rcx,%r10
 153:	4d 29 ca             	sub    %r9,%r10
 156:	31 c0                	xor    %eax,%eax
 158:	0f 1f 84 00 00 00 00 	nopl   0x0(%rax,%rax,1)
 15f:	00 
 160:	4c 8b 1c c6          	mov    (%rsi,%rax,8),%r11
 164:	48 8b 14 c7          	mov    (%rdi,%rax,8),%rdx
 168:	48 8b 1c ca          	mov    (%rdx,%rcx,8),%rbx
 16c:	48 89 1c c6          	mov    %rbx,(%rsi,%rax,8)
 170:	4c 89 1c ca          	mov    %r11,(%rdx,%rcx,8)
 174:	4c 8b 5c c6 08       	mov    0x8(%rsi,%rax,8),%r11
 179:	48 8b 5c c7 08       	mov    0x8(%rdi,%rax,8),%rbx
 17e:	48 8b 14 cb          	mov    (%rbx,%rcx,8),%rdx
 182:	48 89 54 c6 08       	mov    %rdx,0x8(%rsi,%rax,8)
 187:	4c 89 1c cb          	mov    %r11,(%rbx,%rcx,8)
 18b:	4c 8b 5c c6 10       	mov    0x10(%rsi,%rax,8),%r11
 190:	48 8b 5c c7 10       	mov    0x10(%rdi,%rax,8),%rbx
 195:	48 8b 14 cb          	mov    (%rbx,%rcx,8),%rdx
 199:	48 89 54 c6 10       	mov    %rdx,0x10(%rsi,%rax,8)
 19e:	4c 89 1c cb          	mov    %r11,(%rbx,%rcx,8)
 1a2:	4c 8b 5c c6 18       	mov    0x18(%rsi,%rax,8),%r11
 1a7:	48 8b 5c c7 18       	mov    0x18(%rdi,%rax,8),%rbx
 1ac:	48 8b 14 cb          	mov    (%rbx,%rcx,8),%rdx
 1b0:	48 89 54 c6 18       	mov    %rdx,0x18(%rsi,%rax,8)
 1b5:	4c 89 1c cb          	mov    %r11,(%rbx,%rcx,8)
 1b9:	48 83 c0 04          	add    $0x4,%rax
 1bd:	49 39 c2             	cmp    %rax,%r10
 1c0:	75 9e                	jne    160 <_Z9transposePPdi+0x50>
 1c2:	f6 c1 03             	test   $0x3,%cl
 1c5:	74 36                	je     1fd <_Z9transposePPdi+0xed>
 1c7:	49 c1 e1 03          	shl    $0x3,%r9
 1cb:	4c 8d 14 c7          	lea    (%rdi,%rax,8),%r10
 1cf:	4c 8d 1c c6          	lea    (%rsi,%rax,8),%r11
 1d3:	31 f6                	xor    %esi,%esi
 1d5:	66 2e 0f 1f 84 00 00 	nopw   %cs:0x0(%rax,%rax,1)
 1dc:	00 00 00 
 1df:	90                   	nop
 1e0:	49 8b 1c 33          	mov    (%r11,%rsi,1),%rbx
 1e4:	49 8b 14 32          	mov    (%r10,%rsi,1),%rdx
 1e8:	48 8b 04 ca          	mov    (%rdx,%rcx,8),%rax
 1ec:	49 89 04 33          	mov    %rax,(%r11,%rsi,1)
 1f0:	48 89 1c ca          	mov    %rbx,(%rdx,%rcx,8)
 1f4:	48 83 c6 08          	add    $0x8,%rsi
 1f8:	49 39 f1             	cmp    %rsi,%r9
 1fb:	75 e3                	jne    1e0 <_Z9transposePPdi+0xd0>
 1fd:	48 83 c1 01          	add    $0x1,%rcx
 201:	4c 39 c1             	cmp    %r8,%rcx
 204:	0f 85 16 ff ff ff    	jne    120 <_Z9transposePPdi+0x10>
 20a:	5b                   	pop    %rbx
 20b:	c3                   	retq   
 20c:	0f 1f 40 00          	nopl   0x0(%rax)

0000000000000210 <main>:
 210:	55                   	push   %rbp
 211:	41 57                	push   %r15
 213:	41 56                	push   %r14
 215:	41 54                	push   %r12
 217:	53                   	push   %rbx
 218:	48 c7 c0 01 00 00 00 	mov    $0x1,%rax
 21f:	66 87 db             	xchg   %bx,%bx
 222:	48 c7 c0 0f 00 00 00 	mov    $0xf,%rax
 229:	66 87 db             	xchg   %bx,%bx
 22c:	48 8d 3d 00 00 00 00 	lea    0x0(%rip),%rdi        # 233 <main+0x23>
 233:	e8 00 00 00 00       	callq  238 <main+0x28>
 238:	48 87 c9             	xchg   %rcx,%rcx
 23b:	48 c7 c0 ff ff 00 00 	mov    $0xffff,%rax
 242:	48 c7 c3 ff ff 00 00 	mov    $0xffff,%rbx
 249:	48 c7 c1 04 00 00 00 	mov    $0x4,%rcx
 250:	bf 40 00 00 00       	mov    $0x40,%edi
 255:	be 00 00 00 10       	mov    $0x10000000,%esi
 25a:	e8 00 00 00 00       	callq  25f <main+0x4f>
 25f:	4c 8b 25 00 00 00 00 	mov    0x0(%rip),%r12        # 266 <main+0x56>
 266:	49 89 04 24          	mov    %rax,(%r12)
 26a:	4c 8b 35 00 00 00 00 	mov    0x0(%rip),%r14        # 271 <main+0x61>
 271:	41 c7 06 00 04 00 00 	movl   $0x400,(%r14)
 278:	48 8b 05 00 00 00 00 	mov    0x0(%rip),%rax        # 27f <main+0x6f>
 27f:	c7 00 10 00 00 00    	movl   $0x10,(%rax)
 285:	48 8d 3d 00 00 00 00 	lea    0x0(%rip),%rdi        # 28c <main+0x7c>
 28c:	45 31 ff             	xor    %r15d,%r15d
 28f:	bd 01 00 00 00       	mov    $0x1,%ebp
 294:	be 32 00 00 00       	mov    $0x32,%esi
 299:	ba 64 00 00 00       	mov    $0x64,%edx
 29e:	b9 01 00 00 00       	mov    $0x1,%ecx
 2a3:	31 c0                	xor    %eax,%eax
 2a5:	e8 00 00 00 00       	callq  2aa <main+0x9a>
 2aa:	48 8d 3d 00 00 00 00 	lea    0x0(%rip),%rdi        # 2b1 <main+0xa1>
 2b1:	be 88 13 00 00       	mov    $0x1388,%esi
 2b6:	31 c0                	xor    %eax,%eax
 2b8:	e8 00 00 00 00       	callq  2bd <main+0xad>
 2bd:	48 8d 3d 00 00 00 00 	lea    0x0(%rip),%rdi        # 2c4 <main+0xb4>
 2c4:	31 f6                	xor    %esi,%esi
 2c6:	31 c0                	xor    %eax,%eax
 2c8:	e8 00 00 00 00       	callq  2cd <main+0xbd>
 2cd:	48 8d 3d 00 00 00 00 	lea    0x0(%rip),%rdi        # 2d4 <main+0xc4>
 2d4:	be 88 13 00 00       	mov    $0x1388,%esi
 2d9:	31 c0                	xor    %eax,%eax
 2db:	e8 00 00 00 00       	callq  2e0 <main+0xd0>
 2e0:	48 87 c9             	xchg   %rcx,%rcx
 2e3:	48 c7 c0 ff ff 00 00 	mov    $0xffff,%rax
 2ea:	48 c7 c3 ff ff 00 00 	mov    $0xffff,%rbx
 2f1:	48 c7 c1 02 00 00 00 	mov    $0x2,%rcx
 2f8:	49 8b 04 24          	mov    (%r12),%rax
 2fc:	0f 1f 40 00          	nopl   0x0(%rax)
 300:	b9 64 00 00 00       	mov    $0x64,%ecx
 305:	66 2e 0f 1f 84 00 00 	nopw   %cs:0x0(%rax,%rax,1)
 30c:	00 00 00 
 30f:	90                   	nop
 310:	69 d5 6d 4e c6 41    	imul   $0x41c64e6d,%ebp,%edx
 316:	81 c2 39 30 00 00    	add    $0x3039,%edx
 31c:	0f b7 f2             	movzwl %dx,%esi
 31f:	81 e2 ff ff ff 7f    	and    $0x7fffffff,%edx
 325:	49 63 3e             	movslq (%r14),%rdi
 328:	48 0f af fe          	imul   %rsi,%rdi
 32c:	8b 34 b8             	mov    (%rax,%rdi,4),%esi
 32f:	8d 6e 01             	lea    0x1(%rsi),%ebp
 332:	0f af ee             	imul   %esi,%ebp
 335:	89 2c b8             	mov    %ebp,(%rax,%rdi,4)
 338:	69 d2 6d 4e c6 41    	imul   $0x41c64e6d,%edx,%edx
 33e:	81 c2 39 30 00 00    	add    $0x3039,%edx
 344:	0f b7 f2             	movzwl %dx,%esi
 347:	89 d5                	mov    %edx,%ebp
 349:	81 e5 ff ff ff 7f    	and    $0x7fffffff,%ebp
 34f:	49 63 16             	movslq (%r14),%rdx
 352:	48 0f af d6          	imul   %rsi,%rdx
 356:	8b 34 90             	mov    (%rax,%rdx,4),%esi
 359:	8d 7e 01             	lea    0x1(%rsi),%edi
 35c:	0f af fe             	imul   %esi,%edi
 35f:	89 3c 90             	mov    %edi,(%rax,%rdx,4)
 362:	83 c1 fe             	add    $0xfffffffe,%ecx
 365:	75 a9                	jne    310 <main+0x100>
 367:	41 83 c7 01          	add    $0x1,%r15d
 36b:	41 83 ff 32          	cmp    $0x32,%r15d
 36f:	75 8f                	jne    300 <main+0xf0>
 371:	48 87 c9             	xchg   %rcx,%rcx
 374:	48 c7 c0 ff ff 00 00 	mov    $0xffff,%rax
 37b:	48 c7 c3 ff ff 00 00 	mov    $0xffff,%rbx
 382:	48 c7 c1 03 00 00 00 	mov    $0x3,%rcx
 389:	48 8d 3d 00 00 00 00 	lea    0x0(%rip),%rdi        # 390 <main+0x180>
 390:	be 23 00 00 00       	mov    $0x23,%esi
 395:	31 c0                	xor    %eax,%eax
 397:	e8 00 00 00 00       	callq  39c <main+0x18c>
 39c:	48 87 c9             	xchg   %rcx,%rcx
 39f:	48 c7 c0 ff ff 00 00 	mov    $0xffff,%rax
 3a6:	48 c7 c3 ff ff 00 00 	mov    $0xffff,%rbx
 3ad:	48 c7 c1 05 00 00 00 	mov    $0x5,%rcx
 3b4:	48 8d 3d 00 00 00 00 	lea    0x0(%rip),%rdi        # 3bb <main+0x1ab>
 3bb:	e8 00 00 00 00       	callq  3c0 <main+0x1b0>
 3c0:	48 c7 c0 10 00 00 00 	mov    $0x10,%rax
 3c7:	66 87 db             	xchg   %bx,%bx
 3ca:	48 c7 c0 02 00 00 00 	mov    $0x2,%rax
 3d1:	66 87 db             	xchg   %bx,%bx
 3d4:	31 c0                	xor    %eax,%eax
 3d6:	5b                   	pop    %rbx
 3d7:	41 5c                	pop    %r12
 3d9:	41 5e                	pop    %r14
 3db:	41 5f                	pop    %r15
 3dd:	5d                   	pop    %rbp
 3de:	c3                   	retq   

Disassembly of section .text.startup:

0000000000000000 <_GLOBAL__sub_I_test.cpp>:
   0:	41 57                	push   %r15
   2:	41 56                	push   %r14
   4:	53                   	push   %rbx
   5:	48 83 ec 10          	sub    $0x10,%rsp
   9:	48 8d 1d 00 00 00 00 	lea    0x0(%rip),%rbx        # 10 <_GLOBAL__sub_I_test.cpp+0x10>
  10:	48 89 df             	mov    %rbx,%rdi
  13:	e8 00 00 00 00       	callq  18 <_GLOBAL__sub_I_test.cpp+0x18>
  18:	48 8b 3d 00 00 00 00 	mov    0x0(%rip),%rdi        # 1f <_GLOBAL__sub_I_test.cpp+0x1f>
  1f:	4c 8d 35 00 00 00 00 	lea    0x0(%rip),%r14        # 26 <_GLOBAL__sub_I_test.cpp+0x26>
  26:	48 89 de             	mov    %rbx,%rsi
  29:	4c 89 f2             	mov    %r14,%rdx
  2c:	e8 00 00 00 00       	callq  31 <_GLOBAL__sub_I_test.cpp+0x31>
  31:	48 8d 05 00 00 00 00 	lea    0x0(%rip),%rax        # 38 <_GLOBAL__sub_I_test.cpp+0x38>
  38:	48 89 05 00 00 00 00 	mov    %rax,0x0(%rip)        # 3f <_GLOBAL__sub_I_test.cpp+0x3f>
  3f:	48 8d 1d 00 00 00 00 	lea    0x0(%rip),%rbx        # 46 <_GLOBAL__sub_I_test.cpp+0x46>
  46:	48 c7 44 24 08 15 00 	movq   $0x15,0x8(%rsp)
  4d:	00 00 
  4f:	48 8d 74 24 08       	lea    0x8(%rsp),%rsi
  54:	31 d2                	xor    %edx,%edx
  56:	48 89 df             	mov    %rbx,%rdi
  59:	e8 00 00 00 00       	callq  5e <_GLOBAL__sub_I_test.cpp+0x5e>
  5e:	48 89 05 00 00 00 00 	mov    %rax,0x0(%rip)        # 65 <_GLOBAL__sub_I_test.cpp+0x65>
  65:	48 8b 4c 24 08       	mov    0x8(%rsp),%rcx
  6a:	48 89 0d 00 00 00 00 	mov    %rcx,0x0(%rip)        # 71 <_GLOBAL__sub_I_test.cpp+0x71>
  71:	0f 10 05 00 00 00 00 	movups 0x0(%rip),%xmm0        # 78 <_GLOBAL__sub_I_test.cpp+0x78>
  78:	0f 11 00             	movups %xmm0,(%rax)
  7b:	48 ba 74 69 6f 6e 48 	movabs $0x646165486e6f6974,%rdx
  82:	65 61 64 
  85:	48 89 50 0d          	mov    %rdx,0xd(%rax)
  89:	48 89 0d 00 00 00 00 	mov    %rcx,0x0(%rip)        # 90 <_GLOBAL__sub_I_test.cpp+0x90>
  90:	48 8b 05 00 00 00 00 	mov    0x0(%rip),%rax        # 97 <_GLOBAL__sub_I_test.cpp+0x97>
  97:	c6 04 08 00          	movb   $0x0,(%rax,%rcx,1)
  9b:	4c 8b 3d 00 00 00 00 	mov    0x0(%rip),%r15        # a2 <_GLOBAL__sub_I_test.cpp+0xa2>
  a2:	4c 89 ff             	mov    %r15,%rdi
  a5:	48 89 de             	mov    %rbx,%rsi
  a8:	4c 89 f2             	mov    %r14,%rdx
  ab:	e8 00 00 00 00       	callq  b0 <_GLOBAL__sub_I_test.cpp+0xb0>
  b0:	48 8d 05 00 00 00 00 	lea    0x0(%rip),%rax        # b7 <_GLOBAL__sub_I_test.cpp+0xb7>
  b7:	48 89 05 00 00 00 00 	mov    %rax,0x0(%rip)        # be <_GLOBAL__sub_I_test.cpp+0xbe>
  be:	48 8d 1d 00 00 00 00 	lea    0x0(%rip),%rbx        # c5 <_GLOBAL__sub_I_test.cpp+0xc5>
  c5:	48 c7 44 24 08 15 00 	movq   $0x15,0x8(%rsp)
  cc:	00 00 
  ce:	48 8d 74 24 08       	lea    0x8(%rsp),%rsi
  d3:	31 d2                	xor    %edx,%edx
  d5:	48 89 df             	mov    %rbx,%rdi
  d8:	e8 00 00 00 00       	callq  dd <_GLOBAL__sub_I_test.cpp+0xdd>
  dd:	48 89 05 00 00 00 00 	mov    %rax,0x0(%rip)        # e4 <_GLOBAL__sub_I_test.cpp+0xe4>
  e4:	48 8b 4c 24 08       	mov    0x8(%rsp),%rcx
  e9:	48 89 0d 00 00 00 00 	mov    %rcx,0x0(%rip)        # f0 <_GLOBAL__sub_I_test.cpp+0xf0>
  f0:	0f 10 05 00 00 00 00 	movups 0x0(%rip),%xmm0        # f7 <_GLOBAL__sub_I_test.cpp+0xf7>
  f7:	0f 11 00             	movups %xmm0,(%rax)
  fa:	48 ba 74 69 6f 6e 54 	movabs $0x6c6961546e6f6974,%rdx
 101:	61 69 6c 
 104:	48 89 50 0d          	mov    %rdx,0xd(%rax)
 108:	48 89 0d 00 00 00 00 	mov    %rcx,0x0(%rip)        # 10f <_GLOBAL__sub_I_test.cpp+0x10f>
 10f:	48 8b 05 00 00 00 00 	mov    0x0(%rip),%rax        # 116 <_GLOBAL__sub_I_test.cpp+0x116>
 116:	c6 04 08 00          	movb   $0x0,(%rax,%rcx,1)
 11a:	4c 89 ff             	mov    %r15,%rdi
 11d:	48 89 de             	mov    %rbx,%rsi
 120:	4c 89 f2             	mov    %r14,%rdx
 123:	e8 00 00 00 00       	callq  128 <_GLOBAL__sub_I_test.cpp+0x128>
 128:	48 8d 05 00 00 00 00 	lea    0x0(%rip),%rax        # 12f <_GLOBAL__sub_I_test.cpp+0x12f>
 12f:	48 89 05 00 00 00 00 	mov    %rax,0x0(%rip)        # 136 <_GLOBAL__sub_I_test.cpp+0x136>
 136:	48 8d 1d 00 00 00 00 	lea    0x0(%rip),%rbx        # 13d <_GLOBAL__sub_I_test.cpp+0x13d>
 13d:	48 c7 44 24 08 18 00 	movq   $0x18,0x8(%rsp)
 144:	00 00 
 146:	48 8d 74 24 08       	lea    0x8(%rsp),%rsi
 14b:	31 d2                	xor    %edx,%edx
 14d:	48 89 df             	mov    %rbx,%rdi
 150:	e8 00 00 00 00       	callq  155 <_GLOBAL__sub_I_test.cpp+0x155>
 155:	48 89 05 00 00 00 00 	mov    %rax,0x0(%rip)        # 15c <_GLOBAL__sub_I_test.cpp+0x15c>
 15c:	48 8b 4c 24 08       	mov    0x8(%rsp),%rcx
 161:	48 89 0d 00 00 00 00 	mov    %rcx,0x0(%rip)        # 168 <_GLOBAL__sub_I_test.cpp+0x168>
 168:	0f 10 05 00 00 00 00 	movups 0x0(%rip),%xmm0        # 16f <_GLOBAL__sub_I_test.cpp+0x16f>
 16f:	0f 11 00             	movups %xmm0,(%rax)
 172:	48 ba 61 64 65 72 69 	movabs $0x6969696972656461,%rdx
 179:	69 69 69 
 17c:	48 89 50 10          	mov    %rdx,0x10(%rax)
 180:	48 89 0d 00 00 00 00 	mov    %rcx,0x0(%rip)        # 187 <_GLOBAL__sub_I_test.cpp+0x187>
 187:	48 8b 05 00 00 00 00 	mov    0x0(%rip),%rax        # 18e <_GLOBAL__sub_I_test.cpp+0x18e>
 18e:	c6 04 08 00          	movb   $0x0,(%rax,%rcx,1)
 192:	4c 89 ff             	mov    %r15,%rdi
 195:	48 89 de             	mov    %rbx,%rsi
 198:	4c 89 f2             	mov    %r14,%rdx
 19b:	e8 00 00 00 00       	callq  1a0 <_GLOBAL__sub_I_test.cpp+0x1a0>
 1a0:	48 8d 05 00 00 00 00 	lea    0x0(%rip),%rax        # 1a7 <_GLOBAL__sub_I_test.cpp+0x1a7>
 1a7:	48 89 05 00 00 00 00 	mov    %rax,0x0(%rip)        # 1ae <_GLOBAL__sub_I_test.cpp+0x1ae>
 1ae:	48 8d 1d 00 00 00 00 	lea    0x0(%rip),%rbx        # 1b5 <_GLOBAL__sub_I_test.cpp+0x1b5>
 1b5:	48 c7 44 24 08 16 00 	movq   $0x16,0x8(%rsp)
 1bc:	00 00 
 1be:	48 8d 74 24 08       	lea    0x8(%rsp),%rsi
 1c3:	31 d2                	xor    %edx,%edx
 1c5:	48 89 df             	mov    %rbx,%rdi
 1c8:	e8 00 00 00 00       	callq  1cd <_GLOBAL__sub_I_test.cpp+0x1cd>
 1cd:	48 89 05 00 00 00 00 	mov    %rax,0x0(%rip)        # 1d4 <_GLOBAL__sub_I_test.cpp+0x1d4>
 1d4:	48 8b 4c 24 08       	mov    0x8(%rsp),%rcx
 1d9:	48 89 0d 00 00 00 00 	mov    %rcx,0x0(%rip)        # 1e0 <_GLOBAL__sub_I_test.cpp+0x1e0>
 1e0:	0f 10 05 00 00 00 00 	movups 0x0(%rip),%xmm0        # 1e7 <_GLOBAL__sub_I_test.cpp+0x1e7>
 1e7:	0f 11 00             	movups %xmm0,(%rax)
 1ea:	48 ba 6c 6f 61 64 65 	movabs $0x6932726564616f6c,%rdx
 1f1:	72 32 69 
 1f4:	48 89 50 0e          	mov    %rdx,0xe(%rax)
 1f8:	48 89 0d 00 00 00 00 	mov    %rcx,0x0(%rip)        # 1ff <_GLOBAL__sub_I_test.cpp+0x1ff>
 1ff:	48 8b 05 00 00 00 00 	mov    0x0(%rip),%rax        # 206 <_GLOBAL__sub_I_test.cpp+0x206>
 206:	c6 04 08 00          	movb   $0x0,(%rax,%rcx,1)
 20a:	4c 89 ff             	mov    %r15,%rdi
 20d:	48 89 de             	mov    %rbx,%rsi
 210:	4c 89 f2             	mov    %r14,%rdx
 213:	e8 00 00 00 00       	callq  218 <_GLOBAL__sub_I_test.cpp+0x218>
 218:	48 8d 05 00 00 00 00 	lea    0x0(%rip),%rax        # 21f <_GLOBAL__sub_I_test.cpp+0x21f>
 21f:	48 89 05 00 00 00 00 	mov    %rax,0x0(%rip)        # 226 <_GLOBAL__sub_I_test.cpp+0x226>
 226:	48 8d 1d 00 00 00 00 	lea    0x0(%rip),%rbx        # 22d <_GLOBAL__sub_I_test.cpp+0x22d>
 22d:	48 c7 44 24 08 1c 00 	movq   $0x1c,0x8(%rsp)
 234:	00 00 
 236:	48 8d 74 24 08       	lea    0x8(%rsp),%rsi
 23b:	31 d2                	xor    %edx,%edx
 23d:	48 89 df             	mov    %rbx,%rdi
 240:	e8 00 00 00 00       	callq  245 <_GLOBAL__sub_I_test.cpp+0x245>
 245:	48 89 05 00 00 00 00 	mov    %rax,0x0(%rip)        # 24c <_GLOBAL__sub_I_test.cpp+0x24c>
 24c:	48 8b 4c 24 08       	mov    0x8(%rsp),%rcx
 251:	48 89 0d 00 00 00 00 	mov    %rcx,0x0(%rip)        # 258 <_GLOBAL__sub_I_test.cpp+0x258>
 258:	0f 10 05 00 00 00 00 	movups 0x0(%rip),%xmm0        # 25f <_GLOBAL__sub_I_test.cpp+0x25f>
 25f:	0f 11 40 0c          	movups %xmm0,0xc(%rax)
 263:	0f 10 05 00 00 00 00 	movups 0x0(%rip),%xmm0        # 26a <_GLOBAL__sub_I_test.cpp+0x26a>
 26a:	0f 11 00             	movups %xmm0,(%rax)
 26d:	48 89 0d 00 00 00 00 	mov    %rcx,0x0(%rip)        # 274 <_GLOBAL__sub_I_test.cpp+0x274>
 274:	48 8b 05 00 00 00 00 	mov    0x0(%rip),%rax        # 27b <_GLOBAL__sub_I_test.cpp+0x27b>
 27b:	c6 04 08 00          	movb   $0x0,(%rax,%rcx,1)
 27f:	4c 89 ff             	mov    %r15,%rdi
 282:	48 89 de             	mov    %rbx,%rsi
 285:	4c 89 f2             	mov    %r14,%rdx
 288:	e8 00 00 00 00       	callq  28d <_GLOBAL__sub_I_test.cpp+0x28d>
 28d:	48 8d 05 00 00 00 00 	lea    0x0(%rip),%rax        # 294 <_GLOBAL__sub_I_test.cpp+0x294>
 294:	48 89 05 00 00 00 00 	mov    %rax,0x0(%rip)        # 29b <_GLOBAL__sub_I_test.cpp+0x29b>
 29b:	48 8d 35 00 00 00 00 	lea    0x0(%rip),%rsi        # 2a2 <_GLOBAL__sub_I_test.cpp+0x2a2>
 2a2:	48 b8 44 45 43 49 53 	movabs $0x4e4f495349434544,%rax
 2a9:	49 4f 4e 
 2ac:	48 89 05 00 00 00 00 	mov    %rax,0x0(%rip)        # 2b3 <_GLOBAL__sub_I_test.cpp+0x2b3>
 2b3:	48 b8 50 49 4d 50 52 	movabs $0x44464f52504d4950,%rax
 2ba:	4f 46 44 
 2bd:	48 89 05 00 00 00 00 	mov    %rax,0x0(%rip)        # 2c4 <_GLOBAL__sub_I_test.cpp+0x2c4>
 2c4:	48 c7 05 00 00 00 00 	movq   $0xf,0x0(%rip)        # 2cf <_GLOBAL__sub_I_test.cpp+0x2cf>
 2cb:	0f 00 00 00 
 2cf:	c6 05 00 00 00 00 00 	movb   $0x0,0x0(%rip)        # 2d6 <_GLOBAL__sub_I_test.cpp+0x2d6>
 2d6:	4c 89 ff             	mov    %r15,%rdi
 2d9:	4c 89 f2             	mov    %r14,%rdx
 2dc:	e8 00 00 00 00       	callq  2e1 <_GLOBAL__sub_I_test.cpp+0x2e1>
 2e1:	48 8d 05 00 00 00 00 	lea    0x0(%rip),%rax        # 2e8 <_GLOBAL__sub_I_test.cpp+0x2e8>
 2e8:	48 89 05 00 00 00 00 	mov    %rax,0x0(%rip)        # 2ef <_GLOBAL__sub_I_test.cpp+0x2ef>
 2ef:	48 8d 35 00 00 00 00 	lea    0x0(%rip),%rsi        # 2f6 <_GLOBAL__sub_I_test.cpp+0x2f6>
 2f6:	48 b8 50 49 4d 50 52 	movabs $0x52464f52504d4950,%rax
 2fd:	4f 46 52 
 300:	48 89 05 00 00 00 00 	mov    %rax,0x0(%rip)        # 307 <_GLOBAL__sub_I_test.cpp+0x307>
 307:	66 c7 05 00 00 00 00 	movw   $0x494f,0x0(%rip)        # 310 <_GLOBAL__sub_I_test.cpp+0x310>
 30e:	4f 49 
 310:	48 c7 05 00 00 00 00 	movq   $0xa,0x0(%rip)        # 31b <_GLOBAL__sub_I_test.cpp+0x31b>
 317:	0a 00 00 00 
 31b:	c6 05 00 00 00 00 00 	movb   $0x0,0x0(%rip)        # 322 <_GLOBAL__sub_I_test.cpp+0x322>
 322:	4c 89 ff             	mov    %r15,%rdi
 325:	4c 89 f2             	mov    %r14,%rdx
 328:	e8 00 00 00 00       	callq  32d <_GLOBAL__sub_I_test.cpp+0x32d>
 32d:	48 8d 05 00 00 00 00 	lea    0x0(%rip),%rax        # 334 <_GLOBAL__sub_I_test.cpp+0x334>
 334:	48 89 05 00 00 00 00 	mov    %rax,0x0(%rip)        # 33b <_GLOBAL__sub_I_test.cpp+0x33b>
 33b:	48 8d 35 00 00 00 00 	lea    0x0(%rip),%rsi        # 342 <_GLOBAL__sub_I_test.cpp+0x342>
 342:	48 b8 62 6c 6f 63 6b 	movabs $0x64692e6b636f6c62,%rax
 349:	2e 69 64 
 34c:	48 89 05 00 00 00 00 	mov    %rax,0x0(%rip)        # 353 <_GLOBAL__sub_I_test.cpp+0x353>
 353:	48 b8 62 61 73 69 63 	movabs $0x6f6c626369736162,%rax
 35a:	62 6c 6f 
 35d:	48 89 05 00 00 00 00 	mov    %rax,0x0(%rip)        # 364 <_GLOBAL__sub_I_test.cpp+0x364>
 364:	48 c7 05 00 00 00 00 	movq   $0xd,0x0(%rip)        # 36f <_GLOBAL__sub_I_test.cpp+0x36f>
 36b:	0d 00 00 00 
 36f:	c6 05 00 00 00 00 00 	movb   $0x0,0x0(%rip)        # 376 <_GLOBAL__sub_I_test.cpp+0x376>
 376:	4c 89 ff             	mov    %r15,%rdi
 379:	4c 89 f2             	mov    %r14,%rdx
 37c:	e8 00 00 00 00       	callq  381 <_GLOBAL__sub_I_test.cpp+0x381>
 381:	48 8d 05 00 00 00 00 	lea    0x0(%rip),%rax        # 388 <_GLOBAL__sub_I_test.cpp+0x388>
 388:	48 89 05 00 00 00 00 	mov    %rax,0x0(%rip)        # 38f <_GLOBAL__sub_I_test.cpp+0x38f>
 38f:	48 8d 35 00 00 00 00 	lea    0x0(%rip),%rsi        # 396 <_GLOBAL__sub_I_test.cpp+0x396>
 396:	c7 05 00 00 00 00 2e 	movl   $0x706d6f2e,0x0(%rip)        # 3a0 <_GLOBAL__sub_I_test.cpp+0x3a0>
 39d:	6f 6d 70 
 3a0:	48 c7 05 00 00 00 00 	movq   $0x4,0x0(%rip)        # 3ab <_GLOBAL__sub_I_test.cpp+0x3ab>
 3a7:	04 00 00 00 
 3ab:	c6 05 00 00 00 00 00 	movb   $0x0,0x0(%rip)        # 3b2 <_GLOBAL__sub_I_test.cpp+0x3b2>
 3b2:	4c 89 ff             	mov    %r15,%rdi
 3b5:	4c 89 f2             	mov    %r14,%rdx
 3b8:	e8 00 00 00 00       	callq  3bd <_GLOBAL__sub_I_test.cpp+0x3bd>
 3bd:	48 8d 05 00 00 00 00 	lea    0x0(%rip),%rax        # 3c4 <_GLOBAL__sub_I_test.cpp+0x3c4>
 3c4:	48 89 05 00 00 00 00 	mov    %rax,0x0(%rip)        # 3cb <_GLOBAL__sub_I_test.cpp+0x3cb>
 3cb:	48 8d 35 00 00 00 00 	lea    0x0(%rip),%rsi        # 3d2 <_GLOBAL__sub_I_test.cpp+0x3d2>
 3d2:	48 b8 64 5f 63 72 65 	movabs $0x6574616572635f64,%rax
 3d9:	61 74 65 
 3dc:	48 89 05 00 00 00 00 	mov    %rax,0x0(%rip)        # 3e3 <_GLOBAL__sub_I_test.cpp+0x3e3>
 3e3:	48 b8 70 74 68 72 65 	movabs $0x5f64616572687470,%rax
 3ea:	61 64 5f 
 3ed:	48 89 05 00 00 00 00 	mov    %rax,0x0(%rip)        # 3f4 <_GLOBAL__sub_I_test.cpp+0x3f4>
 3f4:	48 c7 05 00 00 00 00 	movq   $0xe,0x0(%rip)        # 3ff <_GLOBAL__sub_I_test.cpp+0x3ff>
 3fb:	0e 00 00 00 
 3ff:	c6 05 00 00 00 00 00 	movb   $0x0,0x0(%rip)        # 406 <_GLOBAL__sub_I_test.cpp+0x406>
 406:	4c 89 ff             	mov    %r15,%rdi
 409:	4c 89 f2             	mov    %r14,%rdx
 40c:	e8 00 00 00 00       	callq  411 <_GLOBAL__sub_I_test.cpp+0x411>
 411:	48 83 c4 10          	add    $0x10,%rsp
 415:	5b                   	pop    %rbx
 416:	41 5e                	pop    %r14
 418:	41 5f                	pop    %r15
 41a:	c3                   	retq   

Disassembly of section .llvm_addrsig:

0000000000000000 <.llvm_addrsig>:
   0:	30 0f                	xor    %cl,(%rdi)
   2:	1a 2f                	sbb    (%rdi),%ch
   4:	16                   	(bad)  
   5:	17                   	(bad)  
   6:	15 18 19 12 10       	adc    $0x10121918,%eax
   b:	14 11                	adc    $0x11,%al
   d:	13                   	.byte 0x13
